target datalayout = "e-m:e-p270:32:32-p271:32:32-p272:64:64-i64:64-i128:128-f80:128-n8:16:32:64-S128"
target triple = "x86_64-unknown-linux-gnu"

%"class.boost::dynamic_bitset" = type { %"class.std::vector", i64 }
%"class.std::vector" = type { %"struct.std::_Vector_base" }
%"struct.std::_Vector_base" = type { %"struct.std::_Vector_base<unsigned long, std::allocator<unsigned long>>::_Vector_impl" }
%"struct.std::_Vector_base<unsigned long, std::allocator<unsigned long>>::_Vector_impl" = type { %"struct.std::_Vector_base<unsigned long, std::allocator<unsigned long>>::_Vector_impl_data" }
%"struct.std::_Vector_base<unsigned long, std::allocator<unsigned long>>::_Vector_impl_data" = type { ptr, ptr, ptr }
%"struct.ue2::(anonymous namespace)::ExceptionProto" = type <{ i32, [4 x i8], %"class.boost::dynamic_bitset", %"class.boost::dynamic_bitset", i32, i32, i32, [4 x i8] }>

; Function Attrs: mustprogress uwtable
define internal noundef zeroext i1 @_ZNK3ue212_GLOBAL__N_114ExceptionProtoltERKS1_(ptr noundef nonnull align 8 dereferenceable(84) %this, ptr noundef nonnull align 8 dereferenceable(84) %b) #3 align 2 {
entry:
  %retval = alloca i1, align 1
  %this.addr = alloca ptr, align 8
  %b.addr = alloca ptr, align 8
  %a = alloca ptr, align 8
  store ptr %this, ptr %this.addr, align 8
  store ptr %b, ptr %b.addr, align 8
  %this1 = load ptr, ptr %this.addr, align 8
  store ptr %this1, ptr %a, align 8
  br label %do.body

do.body:                                          ; preds = %entry
  %0 = load ptr, ptr %a, align 8
  %reports_index = getelementptr inbounds %"struct.ue2::(anonymous namespace)::ExceptionProto", ptr %0, i32 0, i32 0
  %1 = load i32, ptr %reports_index, align 8
  %2 = load ptr, ptr %b.addr, align 8
  %reports_index2 = getelementptr inbounds %"struct.ue2::(anonymous namespace)::ExceptionProto", ptr %2, i32 0, i32 0
  %3 = load i32, ptr %reports_index2, align 8
  %cmp = icmp ult i32 %1, %3
  br i1 %cmp, label %if.then, label %if.end

if.then:                                          ; preds = %do.body
  store i1 true, ptr %retval, align 1
  br label %return

if.end:                                           ; preds = %do.body
  %4 = load ptr, ptr %b.addr, align 8
  %reports_index3 = getelementptr inbounds %"struct.ue2::(anonymous namespace)::ExceptionProto", ptr %4, i32 0, i32 0
  %5 = load i32, ptr %reports_index3, align 8
  %6 = load ptr, ptr %a, align 8
  %reports_index4 = getelementptr inbounds %"struct.ue2::(anonymous namespace)::ExceptionProto", ptr %6, i32 0, i32 0
  %7 = load i32, ptr %reports_index4, align 8
  %cmp5 = icmp ult i32 %5, %7
  br i1 %cmp5, label %if.then6, label %if.end7

if.then6:                                         ; preds = %if.end
  store i1 false, ptr %retval, align 1
  br label %return

if.end7:                                          ; preds = %if.end
  br label %do.end

do.end:                                           ; preds = %if.end7
  br label %do.body8

do.body8:                                         ; preds = %do.end
  %8 = load ptr, ptr %a, align 8
  %repeat_index = getelementptr inbounds %"struct.ue2::(anonymous namespace)::ExceptionProto", ptr %8, i32 0, i32 4
  %9 = load i32, ptr %repeat_index, align 8
  %10 = load ptr, ptr %b.addr, align 8
  %repeat_index9 = getelementptr inbounds %"struct.ue2::(anonymous namespace)::ExceptionProto", ptr %10, i32 0, i32 4
  %11 = load i32, ptr %repeat_index9, align 8
  %cmp10 = icmp ult i32 %9, %11
  br i1 %cmp10, label %if.then11, label %if.end12

if.then11:                                        ; preds = %do.body8
  store i1 true, ptr %retval, align 1
  br label %return

if.end12:                                         ; preds = %do.body8
  %12 = load ptr, ptr %b.addr, align 8
  %repeat_index13 = getelementptr inbounds %"struct.ue2::(anonymous namespace)::ExceptionProto", ptr %12, i32 0, i32 4
  %13 = load i32, ptr %repeat_index13, align 8
  %14 = load ptr, ptr %a, align 8
  %repeat_index14 = getelementptr inbounds %"struct.ue2::(anonymous namespace)::ExceptionProto", ptr %14, i32 0, i32 4
  %15 = load i32, ptr %repeat_index14, align 8
  %cmp15 = icmp ult i32 %13, %15
  br i1 %cmp15, label %if.then16, label %if.end17

if.then16:                                        ; preds = %if.end12
  store i1 false, ptr %retval, align 1
  br label %return

if.end17:                                         ; preds = %if.end12
  br label %do.end18

do.end18:                                         ; preds = %if.end17
  br label %do.body19

do.body19:                                        ; preds = %do.end18
  %16 = load ptr, ptr %a, align 8
  %trigger = getelementptr inbounds %"struct.ue2::(anonymous namespace)::ExceptionProto", ptr %16, i32 0, i32 5
  %17 = load i32, ptr %trigger, align 4
  %18 = load ptr, ptr %b.addr, align 8
  %trigger20 = getelementptr inbounds %"struct.ue2::(anonymous namespace)::ExceptionProto", ptr %18, i32 0, i32 5
  %19 = load i32, ptr %trigger20, align 4
  %cmp21 = icmp slt i32 %17, %19
  br i1 %cmp21, label %if.then22, label %if.end23

if.then22:                                        ; preds = %do.body19
  store i1 true, ptr %retval, align 1
  br label %return

if.end23:                                         ; preds = %do.body19
  %20 = load ptr, ptr %b.addr, align 8
  %trigger24 = getelementptr inbounds %"struct.ue2::(anonymous namespace)::ExceptionProto", ptr %20, i32 0, i32 5
  %21 = load i32, ptr %trigger24, align 4
  %22 = load ptr, ptr %a, align 8
  %trigger25 = getelementptr inbounds %"struct.ue2::(anonymous namespace)::ExceptionProto", ptr %22, i32 0, i32 5
  %23 = load i32, ptr %trigger25, align 4
  %cmp26 = icmp slt i32 %21, %23
  br i1 %cmp26, label %if.then27, label %if.end28

if.then27:                                        ; preds = %if.end23
  store i1 false, ptr %retval, align 1
  br label %return

if.end28:                                         ; preds = %if.end23
  br label %do.end29

do.end29:                                         ; preds = %if.end28
  br label %do.body30

do.body30:                                        ; preds = %do.end29
  %24 = load ptr, ptr %a, align 8
  %squash = getelementptr inbounds %"struct.ue2::(anonymous namespace)::ExceptionProto", ptr %24, i32 0, i32 6
  %25 = load i32, ptr %squash, align 8
  %26 = load ptr, ptr %b.addr, align 8
  %squash31 = getelementptr inbounds %"struct.ue2::(anonymous namespace)::ExceptionProto", ptr %26, i32 0, i32 6
  %27 = load i32, ptr %squash31, align 8
  %cmp32 = icmp slt i32 %25, %27
  br i1 %cmp32, label %if.then33, label %if.end34

if.then33:                                        ; preds = %do.body30
  store i1 true, ptr %retval, align 1
  br label %return

if.end34:                                         ; preds = %do.body30
  %28 = load ptr, ptr %b.addr, align 8
  %squash35 = getelementptr inbounds %"struct.ue2::(anonymous namespace)::ExceptionProto", ptr %28, i32 0, i32 6
  %29 = load i32, ptr %squash35, align 8
  %30 = load ptr, ptr %a, align 8
  %squash36 = getelementptr inbounds %"struct.ue2::(anonymous namespace)::ExceptionProto", ptr %30, i32 0, i32 6
  %31 = load i32, ptr %squash36, align 8
  %cmp37 = icmp slt i32 %29, %31
  br i1 %cmp37, label %if.then38, label %if.end39

if.then38:                                        ; preds = %if.end34
  store i1 false, ptr %retval, align 1
  br label %return

if.end39:                                         ; preds = %if.end34
  br label %do.end40

do.end40:                                         ; preds = %if.end39
  br label %do.body41

do.body41:                                        ; preds = %do.end40
  %32 = load ptr, ptr %a, align 8
  %succ_states = getelementptr inbounds %"struct.ue2::(anonymous namespace)::ExceptionProto", ptr %32, i32 0, i32 2
  %33 = load ptr, ptr %b.addr, align 8
  %succ_states42 = getelementptr inbounds %"struct.ue2::(anonymous namespace)::ExceptionProto", ptr %33, i32 0, i32 2
  %call = call noundef zeroext i1 @_ZN5boostltImSaImEEEbRKNS_14dynamic_bitsetIT_T0_EES7_(ptr noundef nonnull align 8 dereferenceable(32) %succ_states, ptr noundef nonnull align 8 dereferenceable(32) %succ_states42)
  br i1 %call, label %if.then43, label %if.end44

if.then43:                                        ; preds = %do.body41
  store i1 true, ptr %retval, align 1
  br label %return

if.end44:                                         ; preds = %do.body41
  %34 = load ptr, ptr %b.addr, align 8
  %succ_states45 = getelementptr inbounds %"struct.ue2::(anonymous namespace)::ExceptionProto", ptr %34, i32 0, i32 2
  %35 = load ptr, ptr %a, align 8
  %succ_states46 = getelementptr inbounds %"struct.ue2::(anonymous namespace)::ExceptionProto", ptr %35, i32 0, i32 2
  %call47 = call noundef zeroext i1 @_ZN5boostltImSaImEEEbRKNS_14dynamic_bitsetIT_T0_EES7_(ptr noundef nonnull align 8 dereferenceable(32) %succ_states45, ptr noundef nonnull align 8 dereferenceable(32) %succ_states46)
  br i1 %call47, label %if.then48, label %if.end49

if.then48:                                        ; preds = %if.end44
  store i1 false, ptr %retval, align 1
  br label %return

if.end49:                                         ; preds = %if.end44
  br label %do.end50

do.end50:                                         ; preds = %if.end49
  br label %do.body51

do.body51:                                        ; preds = %do.end50
  %36 = load ptr, ptr %a, align 8
  %squash_states = getelementptr inbounds %"struct.ue2::(anonymous namespace)::ExceptionProto", ptr %36, i32 0, i32 3
  %37 = load ptr, ptr %b.addr, align 8
  %squash_states52 = getelementptr inbounds %"struct.ue2::(anonymous namespace)::ExceptionProto", ptr %37, i32 0, i32 3
  %call53 = call noundef zeroext i1 @_ZN5boostltImSaImEEEbRKNS_14dynamic_bitsetIT_T0_EES7_(ptr noundef nonnull align 8 dereferenceable(32) %squash_states, ptr noundef nonnull align 8 dereferenceable(32) %squash_states52)
  br i1 %call53, label %if.then54, label %if.end55

if.then54:                                        ; preds = %do.body51
  store i1 true, ptr %retval, align 1
  br label %return

if.end55:                                         ; preds = %do.body51
  %38 = load ptr, ptr %b.addr, align 8
  %squash_states56 = getelementptr inbounds %"struct.ue2::(anonymous namespace)::ExceptionProto", ptr %38, i32 0, i32 3
  %39 = load ptr, ptr %a, align 8
  %squash_states57 = getelementptr inbounds %"struct.ue2::(anonymous namespace)::ExceptionProto", ptr %39, i32 0, i32 3
  %call58 = call noundef zeroext i1 @_ZN5boostltImSaImEEEbRKNS_14dynamic_bitsetIT_T0_EES7_(ptr noundef nonnull align 8 dereferenceable(32) %squash_states56, ptr noundef nonnull align 8 dereferenceable(32) %squash_states57)
  br i1 %call58, label %if.then59, label %if.end60

if.then59:                                        ; preds = %if.end55
  store i1 false, ptr %retval, align 1
  br label %return

if.end60:                                         ; preds = %if.end55
  br label %do.end61

do.end61:                                         ; preds = %if.end60
  store i1 false, ptr %retval, align 1
  br label %return

return:                                           ; preds = %do.end61, %if.then59, %if.then54, %if.then48, %if.then43, %if.then38, %if.then33, %if.then27, %if.then22, %if.then16, %if.then11, %if.then6, %if.then
  %40 = load i1, ptr %retval, align 1
  ret i1 %40
}

; Function Attrs: mustprogress uwtable
define internal noundef zeroext i1 @_ZNKSt4lessIN3ue212_GLOBAL__N_114ExceptionProtoEEclERKS2_S5_(ptr noundef nonnull align 1 dereferenceable(1) %this, ptr noundef nonnull align 8 dereferenceable(84) %__x, ptr noundef nonnull align 8 dereferenceable(84) %__y) #3 align 2 {
entry:
  %this.addr = alloca ptr, align 8
  %__x.addr = alloca ptr, align 8
  %__y.addr = alloca ptr, align 8
  store ptr %this, ptr %this.addr, align 8
  store ptr %__x, ptr %__x.addr, align 8
  store ptr %__y, ptr %__y.addr, align 8
  %0 = load ptr, ptr %__x.addr, align 8
  %1 = load ptr, ptr %__y.addr, align 8
  %call = call noundef zeroext i1 @_ZNK3ue212_GLOBAL__N_114ExceptionProtoltERKS1_(ptr noundef nonnull align 8 dereferenceable(84) %0, ptr noundef nonnull align 8 dereferenceable(84) %1)
  ret i1 %call
}