; Function Attrs: mustprogress uwtable
define internal fastcc noundef zeroext i1 @_ZNKSt4lessIN3ue212_GLOBAL__N_114ExceptionProtoEEclERKS2_S5_(ptr noundef nonnull align 8 dereferenceable(84) %__x, ptr noundef nonnull align 8 dereferenceable(84) %__y) unnamed_addr #2 align 2 {
entry:
  %0 = load i32, ptr %__x, align 8
  %1 = load i32, ptr %__y, align 8
  %cmp.i = icmp ult i32 %0, %1
  br i1 %cmp.i, label %_ZNK3ue212_GLOBAL__N_114ExceptionProtoltERKS1_.exit, label %if.end.i

if.end.i:                                         ; preds = %entry
  %cmp5.i = icmp ult i32 %1, %0
  br i1 %cmp5.i, label %_ZNK3ue212_GLOBAL__N_114ExceptionProtoltERKS1_.exit, label %do.body8.i

do.body8.i:                                       ; preds = %if.end.i
  %repeat_index.i = getelementptr inbounds i8, ptr %__x, i64 72
  %2 = load i32, ptr %repeat_index.i, align 8
  %repeat_index9.i = getelementptr inbounds i8, ptr %__y, i64 72
  %3 = load i32, ptr %repeat_index9.i, align 8
  %cmp10.i = icmp ult i32 %2, %3
  br i1 %cmp10.i, label %_ZNK3ue212_GLOBAL__N_114ExceptionProtoltERKS1_.exit, label %if.end12.i

if.end12.i:                                       ; preds = %do.body8.i
  %cmp15.i = icmp ult i32 %3, %2
  br i1 %cmp15.i, label %_ZNK3ue212_GLOBAL__N_114ExceptionProtoltERKS1_.exit, label %do.body19.i

do.body19.i:                                      ; preds = %if.end12.i
  %trigger.i = getelementptr inbounds i8, ptr %__x, i64 76
  %4 = load i32, ptr %trigger.i, align 4
  %trigger20.i = getelementptr inbounds i8, ptr %__y, i64 76
  %5 = load i32, ptr %trigger20.i, align 4
  %cmp21.i = icmp slt i32 %4, %5
  br i1 %cmp21.i, label %_ZNK3ue212_GLOBAL__N_114ExceptionProtoltERKS1_.exit, label %if.end23.i

if.end23.i:                                       ; preds = %do.body19.i
  %cmp26.i = icmp slt i32 %5, %4
  br i1 %cmp26.i, label %_ZNK3ue212_GLOBAL__N_114ExceptionProtoltERKS1_.exit, label %do.body30.i

do.body30.i:                                      ; preds = %if.end23.i
  %squash.i = getelementptr inbounds i8, ptr %__x, i64 80
  %6 = load i32, ptr %squash.i, align 8
  %squash31.i = getelementptr inbounds i8, ptr %__y, i64 80
  %7 = load i32, ptr %squash31.i, align 8
  %cmp32.i = icmp slt i32 %6, %7
  br i1 %cmp32.i, label %_ZNK3ue212_GLOBAL__N_114ExceptionProtoltERKS1_.exit, label %if.end34.i

if.end34.i:                                       ; preds = %do.body30.i
  %cmp37.i = icmp slt i32 %7, %6
  br i1 %cmp37.i, label %_ZNK3ue212_GLOBAL__N_114ExceptionProtoltERKS1_.exit, label %do.body41.i

do.body41.i:                                      ; preds = %if.end34.i
  %succ_states.i = getelementptr inbounds i8, ptr %__x, i64 8
  %succ_states42.i = getelementptr inbounds i8, ptr %__y, i64 8
  %call.i = tail call noundef zeroext i1 @_ZN5boostltImSaImEEEbRKNS_14dynamic_bitsetIT_T0_EES7_(ptr noundef nonnull align 8 dereferenceable(32) %succ_states.i, ptr noundef nonnull align 8 dereferenceable(32) %succ_states42.i)
  br i1 %call.i, label %_ZNK3ue212_GLOBAL__N_114ExceptionProtoltERKS1_.exit, label %if.end44.i

if.end44.i:                                       ; preds = %do.body41.i
  %call47.i = tail call noundef zeroext i1 @_ZN5boostltImSaImEEEbRKNS_14dynamic_bitsetIT_T0_EES7_(ptr noundef nonnull align 8 dereferenceable(32) %succ_states42.i, ptr noundef nonnull align 8 dereferenceable(32) %succ_states.i)
  br i1 %call47.i, label %_ZNK3ue212_GLOBAL__N_114ExceptionProtoltERKS1_.exit, label %do.body51.i

do.body51.i:                                      ; preds = %if.end44.i
  %squash_states.i = getelementptr inbounds i8, ptr %__x, i64 40
  %squash_states52.i = getelementptr inbounds i8, ptr %__y, i64 40
  %call53.i = tail call noundef zeroext i1 @_ZN5boostltImSaImEEEbRKNS_14dynamic_bitsetIT_T0_EES7_(ptr noundef nonnull align 8 dereferenceable(32) %squash_states.i, ptr noundef nonnull align 8 dereferenceable(32) %squash_states52.i)
  br i1 %call53.i, label %_ZNK3ue212_GLOBAL__N_114ExceptionProtoltERKS1_.exit, label %if.end55.i

if.end55.i:                                       ; preds = %do.body51.i
  %call58.i = tail call noundef zeroext i1 @_ZN5boostltImSaImEEEbRKNS_14dynamic_bitsetIT_T0_EES7_(ptr noundef nonnull align 8 dereferenceable(32) %squash_states52.i, ptr noundef nonnull align 8 dereferenceable(32) %squash_states.i)
  br label %_ZNK3ue212_GLOBAL__N_114ExceptionProtoltERKS1_.exit

_ZNK3ue212_GLOBAL__N_114ExceptionProtoltERKS1_.exit: ; preds = %entry, %if.end.i, %do.body8.i, %if.end12.i, %do.body19.i, %if.end23.i, %do.body30.i, %if.end34.i, %do.body41.i, %if.end44.i, %do.body51.i, %if.end55.i
  %retval.0.i = phi i1 [ true, %entry ], [ false, %if.end.i ], [ true, %do.body8.i ], [ false, %if.end12.i ], [ true, %do.body19.i ], [ false, %if.end23.i ], [ true, %do.body30.i ], [ false, %if.end34.i ], [ true, %do.body41.i ], [ false, %if.end44.i ], [ true, %do.body51.i ], [ false, %if.end55.i ]
  ret i1 %retval.0.i
}